; Function Attrs: nounwind uwtable
define ptr @l_Lake_multiShortOption_loop___rarg___lambda__1(ptr noundef %0, ptr noundef %1, ptr noundef %2, ptr noundef %3, ptr noundef readnone captures(none) %4) local_unnamed_addr #0 {
  %6 = getelementptr inbounds nuw i8, ptr %0, i64 32
  %7 = ptrtoint ptr %1 to i64
  %8 = lshr i64 %7, 1
  %9 = getelementptr inbounds nuw i8, ptr %6, i64 %8
  %10 = load i8, ptr %9, align 1, !tbaa !18
  %11 = icmp sgt i8 %10, -1
  br i1 %11, label %12, label %16

12:                                               ; preds = %5
  %13 = or i64 %7, 1
  %14 = add i64 %13, 2
  %15 = inttoptr i64 %14 to ptr
  br label %lean_string_utf8_next_fast.exit

16:                                               ; preds = %5
  %17 = tail call ptr @lean_string_utf8_next_fast_cold(i64 noundef %8, i8 noundef zeroext %10) #3
  br label %lean_string_utf8_next_fast.exit

lean_string_utf8_next_fast.exit:                  ; preds = %12, %16
  %.0.i = phi ptr [ %15, %12 ], [ %17, %16 ]
  %18 = tail call ptr @l_Lake_multiShortOption_loop___rarg(ptr noundef %2, ptr noundef %3, ptr noundef nonnull %0, ptr noundef %.0.i)
  ret ptr %18
}